target datalayout = "e-m:e-p270:32:32-p271:32:32-p272:64:64-i64:64-i128:128-f80:128-n8:16:32:64-S128"
target triple = "x86_64-pc-linux-gnu"

%class.LogTagSet = type { ptr, i64, [5 x i32], [4 x i8], %class.LogOutputList, %class.LogDecorators, ptr }
%class.LogOutputList = type <{ [6 x ptr], i32, [4 x i8] }>
%class.LogDecorators = type { i32 }
%struct.GenericCDSFileMapHeader = type { i32, i32, i32, i32, i32, i32 }
%class.FileHeaderHelper = type { i32, i8, i8, ptr, ptr, ptr }

@AutoCreateSharedArchive = external global i8, align 1
@.str.86 = private unnamed_addr constant [66 x i8] c"AutoCreateSharedArchive is ignored because %s is a static archive\00", align 1
@.str.107 = private unnamed_addr constant [40 x i8] c"Specified shared archive not found (%s)\00", align 1
@_ZN16LogTagSetMappingILN6LogTag4typeE14ELS1_0ELS1_0ELS1_0ELS1_0ELS1_0EE7_tagsetE = linkonce_odr hidden global %class.LogTagSet zeroinitializer, comdat, align 8

; Function Attrs: mustprogress nounwind uwtable
define linkonce_odr hidden noundef zeroext i1 @_ZNK13LogOutputList8is_levelEN8LogLevel4typeE(ptr noundef nonnull align 8 dereferenceable(52) %0, i32 noundef %1) #1 comdat align 2 {
  %3 = alloca ptr, align 8
  %4 = alloca i32, align 4
  store ptr %0, ptr %3, align 8
  store i32 %1, ptr %4, align 4
  %5 = load ptr, ptr %3, align 8
  %6 = getelementptr inbounds %class.LogOutputList, ptr %5, i32 0, i32 0
  %7 = load i32, ptr %4, align 4
  %8 = zext i32 %7 to i64
  %9 = getelementptr inbounds [6 x ptr], ptr %6, i64 0, i64 %8
  %10 = load volatile ptr, ptr %9, align 8
  %11 = icmp ne ptr %10, null
  ret i1 %11
}

; Function Attrs: mustprogress nounwind uwtable
define linkonce_odr hidden noundef zeroext i1 @_ZNK9LogTagSet8is_levelEN8LogLevel4typeE(ptr noundef nonnull align 8 dereferenceable(112) %0, i32 noundef %1) #1 comdat align 2 {
  %3 = alloca ptr, align 8
  %4 = alloca i32, align 4
  store ptr %0, ptr %3, align 8
  store i32 %1, ptr %4, align 4
  %5 = load ptr, ptr %3, align 8
  %6 = getelementptr inbounds %class.LogTagSet, ptr %5, i32 0, i32 4
  %7 = load i32, ptr %4, align 4
  %8 = call noundef zeroext i1 @_ZNK13LogOutputList8is_levelEN8LogLevel4typeE(ptr noundef nonnull align 8 dereferenceable(52) %6, i32 noundef %7)
  ret i1 %8
}

; Function Attrs: mustprogress nounwind uwtable
define linkonce_odr hidden noundef nonnull align 8 dereferenceable(112) ptr @_ZN16LogTagSetMappingILN6LogTag4typeE14ELS1_0ELS1_0ELS1_0ELS1_0ELS1_0EE6tagsetEv() #1 comdat align 2 {
  ret ptr @_ZN16LogTagSetMappingILN6LogTag4typeE14ELS1_0ELS1_0ELS1_0ELS1_0ELS1_0EE7_tagsetE
}

; Function Attrs: mustprogress nounwind uwtable
define linkonce_odr hidden void @_ZN16FileHeaderHelperD2Ev(ptr noundef nonnull align 8 dereferenceable(32) %0) unnamed_addr #1 comdat align 2 {
  %2 = alloca ptr, align 8
  store ptr %0, ptr %2, align 8
  %3 = load ptr, ptr %2, align 8
  %4 = getelementptr inbounds %class.FileHeaderHelper, ptr %3, i32 0, i32 3
  %5 = load ptr, ptr %4, align 8
  %6 = icmp ne ptr %5, null
  br i1 %6, label %7, label %10

7:                                                ; preds = %1
  %8 = getelementptr inbounds %class.FileHeaderHelper, ptr %3, i32 0, i32 3
  %9 = load ptr, ptr %8, align 8
  call void @_Z8FreeHeapPv(ptr noundef %9)
  br label %10

10:                                               ; preds = %7, %1
  %11 = getelementptr inbounds %class.FileHeaderHelper, ptr %3, i32 0, i32 0
  %12 = load i32, ptr %11, align 8
  %13 = icmp ne i32 %12, -1
  br i1 %13, label %14, label %18

14:                                               ; preds = %10
  %15 = getelementptr inbounds %class.FileHeaderHelper, ptr %3, i32 0, i32 0
  %16 = load i32, ptr %15, align 8
  %17 = call i32 @close(i32 noundef %16)
  br label %18

18:                                               ; preds = %14, %10
  ret void
}

; Function Attrs: mustprogress nounwind uwtable
define linkonce_odr hidden noundef ptr @_ZN16FileHeaderHelper17base_archive_nameEv(ptr noundef nonnull align 8 dereferenceable(32) %0) #1 comdat align 2 {
  %2 = alloca ptr, align 8
  store ptr %0, ptr %2, align 8
  %3 = load ptr, ptr %2, align 8
  %4 = getelementptr inbounds %class.FileHeaderHelper, ptr %3, i32 0, i32 5
  %5 = load ptr, ptr %4, align 8
  ret ptr %5
}

; Function Attrs: mustprogress nounwind uwtable
define linkonce_odr hidden noundef zeroext i1 @_ZN7LogImplILN6LogTag4typeE14ELS1_0ELS1_0ELS1_0ELS1_0ELS1_0EE8is_levelEN8LogLevel4typeE(i32 noundef %0) #1 comdat align 2 {
  %2 = alloca i32, align 4
  store i32 %0, ptr %2, align 4
  %3 = call noundef nonnull align 8 dereferenceable(112) ptr @_ZN16LogTagSetMappingILN6LogTag4typeE14ELS1_0ELS1_0ELS1_0ELS1_0ELS1_0EE6tagsetEv()
  %4 = load i32, ptr %2, align 4
  %5 = call noundef zeroext i1 @_ZNK9LogTagSet8is_levelEN8LogLevel4typeE(ptr noundef nonnull align 8 dereferenceable(112) %3, i32 noundef %4)
  ret i1 %5
}

; Function Attrs: mustprogress nounwind uwtable
define linkonce_odr hidden noundef ptr @_ZN16FileHeaderHelper23get_generic_file_headerEv(ptr noundef nonnull align 8 dereferenceable(32) %0) #1 comdat align 2 {
  %2 = alloca ptr, align 8
  store ptr %0, ptr %2, align 8
  %3 = load ptr, ptr %2, align 8
  %4 = getelementptr inbounds %class.FileHeaderHelper, ptr %3, i32 0, i32 3
  %5 = load ptr, ptr %4, align 8
  ret ptr %5
}

; Function Attrs: mustprogress nounwind uwtable
define linkonce_odr hidden noundef zeroext i1 @_ZN16FileHeaderHelper10initializeEv(ptr noundef nonnull align 8 dereferenceable(32) %0) #1 comdat align 2 {
  %2 = alloca i1, align 1
  %3 = alloca ptr, align 8
  store ptr %0, ptr %3, align 8
  %4 = load ptr, ptr %3, align 8
  %5 = getelementptr inbounds %class.FileHeaderHelper, ptr %4, i32 0, i32 4
  %6 = load ptr, ptr %5, align 8
  %7 = call noundef i32 @_ZN2os4openEPKcii(ptr noundef %6, i32 noundef 0, i32 noundef 0)
  %8 = getelementptr inbounds %class.FileHeaderHelper, ptr %4, i32 0, i32 0
  store i32 %7, ptr %8, align 8
  %9 = getelementptr inbounds %class.FileHeaderHelper, ptr %4, i32 0, i32 0
  %10 = load i32, ptr %9, align 8
  %11 = icmp slt i32 %10, 0
  br i1 %11, label %12, label %19

12:                                               ; preds = %1
  %13 = call noundef zeroext i1 @_ZN7LogImplILN6LogTag4typeE14ELS1_0ELS1_0ELS1_0ELS1_0ELS1_0EE8is_levelEN8LogLevel4typeE(i32 noundef 3)
  br i1 %13, label %15, label %14

14:                                               ; preds = %12
  br label %18

15:                                               ; preds = %12
  %16 = getelementptr inbounds %class.FileHeaderHelper, ptr %4, i32 0, i32 4
  %17 = load ptr, ptr %16, align 8
  call void (ptr, ...) @_ZN7LogImplILN6LogTag4typeE14ELS1_0ELS1_0ELS1_0ELS1_0ELS1_0EE5writeILN8LogLevel4typeE3EEEvPKcz(ptr noundef @.str.107, ptr noundef %17)
  br label %18

18:                                               ; preds = %15, %14
  store i1 false, ptr %2, align 1
  br label %23

19:                                               ; preds = %1
  %20 = getelementptr inbounds %class.FileHeaderHelper, ptr %4, i32 0, i32 0
  %21 = load i32, ptr %20, align 8
  %22 = call noundef zeroext i1 @_ZN16FileHeaderHelper10initializeEi(ptr noundef nonnull align 8 dereferenceable(32) %4, i32 noundef %21)
  store i1 %22, ptr %2, align 1
  br label %23

23:                                               ; preds = %19, %18
  %24 = load i1, ptr %2, align 1
  ret i1 %24
}

; Function Attrs: mustprogress nounwind uwtable
define linkonce_odr hidden void @_ZN16FileHeaderHelperC2EPKcb(ptr noundef nonnull align 8 dereferenceable(32) %0, ptr noundef %1, i1 noundef zeroext %2) unnamed_addr #1 comdat align 2 {
  %4 = alloca ptr, align 8
  %5 = alloca ptr, align 8
  %6 = alloca i8, align 1
  store ptr %0, ptr %4, align 8
  store ptr %1, ptr %5, align 8
  %7 = zext i1 %2 to i8
  store i8 %7, ptr %6, align 1
  %8 = load ptr, ptr %4, align 8
  %9 = getelementptr inbounds %class.FileHeaderHelper, ptr %8, i32 0, i32 0
  store i32 -1, ptr %9, align 8
  %10 = getelementptr inbounds %class.FileHeaderHelper, ptr %8, i32 0, i32 1
  store i8 0, ptr %10, align 4
  %11 = getelementptr inbounds %class.FileHeaderHelper, ptr %8, i32 0, i32 3
  store ptr null, ptr %11, align 8
  %12 = getelementptr inbounds %class.FileHeaderHelper, ptr %8, i32 0, i32 5
  store ptr null, ptr %12, align 8
  %13 = load ptr, ptr %5, align 8
  %14 = getelementptr inbounds %class.FileHeaderHelper, ptr %8, i32 0, i32 4
  store ptr %13, ptr %14, align 8
  %15 = load i8, ptr %6, align 1
  %16 = trunc i8 %15 to i1
  %17 = getelementptr inbounds %class.FileHeaderHelper, ptr %8, i32 0, i32 2
  %18 = zext i1 %16 to i8
  store i8 %18, ptr %17, align 1
  ret void
}

; Function Attrs: mustprogress nounwind uwtable
define hidden noundef zeroext i1 @_ZN11FileMapInfo33get_base_archive_name_from_headerEPKcPPc(ptr noundef %0, ptr noundef %1) #1 align 2 {
  %3 = alloca i1, align 1
  %4 = alloca ptr, align 8
  %5 = alloca ptr, align 8
  %6 = alloca %class.FileHeaderHelper, align 8
  %7 = alloca i32, align 4
  %8 = alloca ptr, align 8
  %9 = alloca ptr, align 8
  store ptr %0, ptr %4, align 8
  store ptr %1, ptr %5, align 8
  %10 = load ptr, ptr %4, align 8
  call void @_ZN16FileHeaderHelperC2EPKcb(ptr noundef nonnull align 8 dereferenceable(32) %6, ptr noundef %10, i1 noundef zeroext false)
  %11 = load ptr, ptr %5, align 8
  store ptr null, ptr %11, align 8
  %12 = call noundef zeroext i1 @_ZN16FileHeaderHelper10initializeEv(ptr noundef nonnull align 8 dereferenceable(32) %6)
  br i1 %12, label %14, label %13

13:                                               ; preds = %2
  store i1 false, ptr %3, align 1
  store i32 1, ptr %7, align 4
  br label %42

14:                                               ; preds = %2
  %15 = call noundef ptr @_ZN16FileHeaderHelper23get_generic_file_headerEv(ptr noundef nonnull align 8 dereferenceable(32) %6)
  store ptr %15, ptr %8, align 8
  %16 = load ptr, ptr %8, align 8
  %17 = getelementptr inbounds %struct.GenericCDSFileMapHeader, ptr %16, i32 0, i32 0
  %18 = load i32, ptr %17, align 4
  %19 = icmp ne i32 %18, -267670616
  br i1 %19, label %20, label %30

20:                                               ; preds = %14
  %21 = load i8, ptr @AutoCreateSharedArchive, align 1
  %22 = trunc i8 %21 to i1
  br i1 %22, label %23, label %29

23:                                               ; preds = %20
  %24 = call noundef zeroext i1 @_ZN7LogImplILN6LogTag4typeE14ELS1_0ELS1_0ELS1_0ELS1_0ELS1_0EE8is_levelEN8LogLevel4typeE(i32 noundef 4)
  br i1 %24, label %26, label %25

25:                                               ; preds = %23
  br label %28

26:                                               ; preds = %23
  %27 = load ptr, ptr %4, align 8
  call void (ptr, ...) @_ZN7LogImplILN6LogTag4typeE14ELS1_0ELS1_0ELS1_0ELS1_0ELS1_0EE5writeILN8LogLevel4typeE4EEEvPKcz(ptr noundef @.str.86, ptr noundef %27)
  br label %28

28:                                               ; preds = %26, %25
  br label %29

29:                                               ; preds = %28, %20
  store i1 true, ptr %3, align 1
  store i32 1, ptr %7, align 4
  br label %42

30:                                               ; preds = %14
  %31 = call noundef ptr @_ZN16FileHeaderHelper17base_archive_nameEv(ptr noundef nonnull align 8 dereferenceable(32) %6)
  store ptr %31, ptr %9, align 8
  %32 = load ptr, ptr %9, align 8
  %33 = icmp eq ptr %32, null
  br i1 %33, label %34, label %37

34:                                               ; preds = %30
  %35 = call noundef ptr @_ZN9CDSConfig20default_archive_pathEv()
  %36 = load ptr, ptr %5, align 8
  store ptr %35, ptr %36, align 8
  br label %41

37:                                               ; preds = %30
  %38 = load ptr, ptr %9, align 8
  %39 = call noundef ptr @_ZN2os16strdup_check_oomEPKc8MEMFLAGS(ptr noundef %38, i8 noundef zeroext 9)
  %40 = load ptr, ptr %5, align 8
  store ptr %39, ptr %40, align 8
  br label %41

41:                                               ; preds = %37, %34
  store i1 true, ptr %3, align 1
  store i32 1, ptr %7, align 4
  br label %42

42:                                               ; preds = %41, %29, %13
  call void @_ZN16FileHeaderHelperD2Ev(ptr noundef nonnull align 8 dereferenceable(32) %6) #13
  %43 = load i1, ptr %3, align 1
  ret i1 %43
}