; Function Attrs: mustprogress nounwind uwtable
define hidden noundef zeroext i1 @_ZN11FileMapInfo33get_base_archive_name_from_headerEPKcPPc(ptr noundef %0, ptr nocapture noundef writeonly %1) local_unnamed_addr #0 align 2 {
  %3 = alloca %class.FileHeaderHelper, align 8
  %4 = getelementptr inbounds i8, ptr %3, i64 4
  store i8 0, ptr %4, align 4
  %5 = getelementptr inbounds i8, ptr %3, i64 8
  store ptr null, ptr %5, align 8
  %6 = getelementptr inbounds i8, ptr %3, i64 24
  store ptr null, ptr %6, align 8
  %7 = getelementptr inbounds i8, ptr %3, i64 16
  store ptr %0, ptr %7, align 8
  %8 = getelementptr inbounds i8, ptr %3, i64 5
  store i8 0, ptr %8, align 1
  store ptr null, ptr %1, align 8
  %9 = tail call noundef i32 @_ZN2os4openEPKcii(ptr noundef %0, i32 noundef 0, i32 noundef 0) #25
  store i32 %9, ptr %3, align 8
  %10 = icmp slt i32 %9, 0
  br i1 %10, label %11, label %_ZN16FileHeaderHelper10initializeEv.exit

11:                                               ; preds = %2
  %12 = load volatile ptr, ptr getelementptr inbounds (i8, ptr @_ZN16LogTagSetMappingILN6LogTag4typeE14ELS1_0ELS1_0ELS1_0ELS1_0ELS1_0EE7_tagsetE, i64 64), align 8
  %.not.i = icmp eq ptr %12, null
  br i1 %.not.i, label %_ZN16FileHeaderHelper10initializeEv.exit.thread, label %13

13:                                               ; preds = %11
  tail call void (ptr, ...) @_ZN7LogImplILN6LogTag4typeE14ELS1_0ELS1_0ELS1_0ELS1_0ELS1_0EE5writeILN8LogLevel4typeE3EEEvPKcz(ptr noundef nonnull @.str.107, ptr noundef %0)
  br label %_ZN16FileHeaderHelper10initializeEv.exit.thread

_ZN16FileHeaderHelper10initializeEv.exit:         ; preds = %2
  %14 = call noundef zeroext i1 @_ZN16FileHeaderHelper10initializeEi(ptr noundef nonnull align 8 dereferenceable(32) %3, i32 noundef %9)
  br i1 %14, label %15, label %_ZN16FileHeaderHelper10initializeEv.exit.thread

15:                                               ; preds = %_ZN16FileHeaderHelper10initializeEv.exit
  %16 = load ptr, ptr %5, align 8
  %17 = load i32, ptr %16, align 4
  %.not = icmp eq i32 %17, -267670616
  br i1 %.not, label %24, label %18

18:                                               ; preds = %15
  %19 = load i8, ptr @AutoCreateSharedArchive, align 1
  %20 = trunc i8 %19 to i1
  br i1 %20, label %21, label %_ZN16FileHeaderHelper10initializeEv.exit.thread

21:                                               ; preds = %18
  %22 = load volatile ptr, ptr getelementptr inbounds (i8, ptr @_ZN16LogTagSetMappingILN6LogTag4typeE14ELS1_0ELS1_0ELS1_0ELS1_0ELS1_0EE7_tagsetE, i64 72), align 8
  %.not13 = icmp eq ptr %22, null
  br i1 %.not13, label %_ZN16FileHeaderHelper10initializeEv.exit.thread, label %23

23:                                               ; preds = %21
  call void (ptr, ...) @_ZN7LogImplILN6LogTag4typeE14ELS1_0ELS1_0ELS1_0ELS1_0ELS1_0EE5writeILN8LogLevel4typeE4EEEvPKcz(ptr noundef nonnull @.str.86, ptr noundef %0)
  br label %_ZN16FileHeaderHelper10initializeEv.exit.thread

24:                                               ; preds = %15
  %25 = load ptr, ptr %6, align 8
  %26 = icmp eq ptr %25, null
  br i1 %26, label %27, label %29

27:                                               ; preds = %24
  %28 = call noundef ptr @_ZN9CDSConfig20default_archive_pathEv() #25
  br label %31

29:                                               ; preds = %24
  %30 = call noundef ptr @_ZN2os16strdup_check_oomEPKc8MEMFLAGS(ptr noundef nonnull %25, i8 noundef zeroext 9) #25
  br label %31

31:                                               ; preds = %29, %27
  %storemerge = phi ptr [ %30, %29 ], [ %28, %27 ]
  store ptr %storemerge, ptr %1, align 8
  br label %_ZN16FileHeaderHelper10initializeEv.exit.thread

_ZN16FileHeaderHelper10initializeEv.exit.thread:  ; preds = %13, %11, %18, %21, %23, %_ZN16FileHeaderHelper10initializeEv.exit, %31
  %.0.i12 = phi i1 [ true, %18 ], [ true, %21 ], [ true, %23 ], [ false, %_ZN16FileHeaderHelper10initializeEv.exit ], [ true, %31 ], [ false, %11 ], [ false, %13 ]
  %32 = load ptr, ptr %5, align 8
  %.not.i10 = icmp eq ptr %32, null
  br i1 %.not.i10, label %34, label %33

33:                                               ; preds = %_ZN16FileHeaderHelper10initializeEv.exit.thread
  call void @_Z8FreeHeapPv(ptr noundef nonnull %32) #25
  br label %34

34:                                               ; preds = %33, %_ZN16FileHeaderHelper10initializeEv.exit.thread
  %35 = load i32, ptr %3, align 8
  %.not2.i = icmp eq i32 %35, -1
  br i1 %.not2.i, label %_ZN16FileHeaderHelperD2Ev.exit, label %36

36:                                               ; preds = %34
  %37 = call i32 @close(i32 noundef %35) #25
  br label %_ZN16FileHeaderHelperD2Ev.exit

_ZN16FileHeaderHelperD2Ev.exit:                   ; preds = %34, %36
  ret i1 %.0.i12
}